target datalayout = "e-m:e-p270:32:32-p271:32:32-p272:64:64-i64:64-i128:128-f80:128-n8:16:32:64-S128"
target triple = "x86_64-unknown-linux-gnu"

%struct.QObjectBase_ = type { i32, i64 }
%struct.QObjectInputVisitor = type { %struct.Visitor, ptr, i8, %struct.anon, ptr }
%struct.Visitor = type { ptr, ptr, ptr, ptr, ptr, ptr, ptr, ptr, ptr, ptr, ptr, ptr, ptr, ptr, ptr, ptr, ptr, ptr, ptr, ptr, i32, %struct.CompatPolicy, ptr, ptr }
%struct.CompatPolicy = type { i8, i32, i8, i32, i8, i32, i8, i32 }
%struct.anon = type { ptr }
%struct.QObject = type { %struct.QObjectBase_ }
%struct.StackObject = type { ptr, ptr, ptr, ptr, ptr, i32, %struct.anon.1 }
%struct.anon.1 = type { ptr }
%struct._GString = type { ptr, i64, i64 }

@.str.1 = private unnamed_addr constant [37 x i8] c"../qemu/qapi/qobject-input-visitor.c\00", align 1
@.str.12 = private unnamed_addr constant [59 x i8] c"QTYPE_NONE < obj->base.type && obj->base.type < QTYPE__MAX\00", align 1
@.str.13 = private unnamed_addr constant [105 x i8] c"/home/dtcxzyw/WorkSpace/Projects/compilers/llvm-opt-benchmark/bench/qemu/qemu/include/qapi/qmp/qobject.h\00", align 1
@__PRETTY_FUNCTION__.qobject_type = private unnamed_addr constant [36 x i8] c"QType qobject_type(const QObject *)\00", align 1
@.str.14 = private unnamed_addr constant [1 x i8] zeroinitializer, align 1
@.str.15 = private unnamed_addr constant [12 x i8] c"<anonymous>\00", align 1
@.str.16 = private unnamed_addr constant [4 x i8] c".%u\00", align 1
@.str.17 = private unnamed_addr constant [5 x i8] c"[%u]\00", align 1
@.str.18 = private unnamed_addr constant [3 x i8] c"!n\00", align 1
@__PRETTY_FUNCTION__.full_name_nth = private unnamed_addr constant [68 x i8] c"const char *full_name_nth(QObjectInputVisitor *, const char *, int)\00", align 1

; Function Attrs: nounwind sspstrong uwtable
define internal i32 @qobject_type(ptr noundef %obj) #0 {
entry:
  %obj.addr = alloca ptr, align 8
  store ptr %obj, ptr %obj.addr, align 8
  %0 = load ptr, ptr %obj.addr, align 8
  %base = getelementptr inbounds %struct.QObject, ptr %0, i32 0, i32 0
  %type = getelementptr inbounds %struct.QObjectBase_, ptr %base, i32 0, i32 0
  %1 = load i32, ptr %type, align 8
  %cmp = icmp ult i32 0, %1
  br i1 %cmp, label %land.lhs.true, label %if.else

land.lhs.true:                                    ; preds = %entry
  %2 = load ptr, ptr %obj.addr, align 8
  %base1 = getelementptr inbounds %struct.QObject, ptr %2, i32 0, i32 0
  %type2 = getelementptr inbounds %struct.QObjectBase_, ptr %base1, i32 0, i32 0
  %3 = load i32, ptr %type2, align 8
  %cmp3 = icmp ult i32 %3, 7
  br i1 %cmp3, label %if.then, label %if.else

if.then:                                          ; preds = %land.lhs.true
  br label %if.end

if.else:                                          ; preds = %land.lhs.true, %entry
  call void @__assert_fail(ptr noundef @.str.12, ptr noundef @.str.13, i32 noundef 126, ptr noundef @__PRETTY_FUNCTION__.qobject_type) #7
  unreachable

if.end:                                           ; preds = %if.then
  %4 = load ptr, ptr %obj.addr, align 8
  %base4 = getelementptr inbounds %struct.QObject, ptr %4, i32 0, i32 0
  %type5 = getelementptr inbounds %struct.QObjectBase_, ptr %base4, i32 0, i32 0
  %5 = load i32, ptr %type5, align 8
  ret i32 %5
}

; Function Attrs: nounwind sspstrong uwtable
define internal ptr @full_name_nth(ptr noundef %qiv, ptr noundef %name, i32 noundef %n) #0 {
entry:
  %retval = alloca ptr, align 8
  %qiv.addr = alloca ptr, align 8
  %name.addr = alloca ptr, align 8
  %n.addr = alloca i32, align 4
  %so = alloca ptr, align 8
  %buf = alloca [32 x i8], align 16
  store ptr %qiv, ptr %qiv.addr, align 8
  store ptr %name, ptr %name.addr, align 8
  store i32 %n, ptr %n.addr, align 4
  %0 = load ptr, ptr %qiv.addr, align 8
  %errname = getelementptr inbounds %struct.QObjectInputVisitor, ptr %0, i32 0, i32 4
  %1 = load ptr, ptr %errname, align 8
  %tobool = icmp ne ptr %1, null
  br i1 %tobool, label %if.then, label %if.else

if.then:                                          ; preds = %entry
  %2 = load ptr, ptr %qiv.addr, align 8
  %errname1 = getelementptr inbounds %struct.QObjectInputVisitor, ptr %2, i32 0, i32 4
  %3 = load ptr, ptr %errname1, align 8
  %call = call ptr @g_string_truncate(ptr noundef %3, i64 noundef 0)
  br label %if.end

if.else:                                          ; preds = %entry
  %call2 = call ptr @g_string_new(ptr noundef @.str.14)
  %4 = load ptr, ptr %qiv.addr, align 8
  %errname3 = getelementptr inbounds %struct.QObjectInputVisitor, ptr %4, i32 0, i32 4
  store ptr %call2, ptr %errname3, align 8
  br label %if.end

if.end:                                           ; preds = %if.else, %if.then
  %5 = load ptr, ptr %qiv.addr, align 8
  %stack = getelementptr inbounds %struct.QObjectInputVisitor, ptr %5, i32 0, i32 3
  %slh_first = getelementptr inbounds %struct.anon, ptr %stack, i32 0, i32 0
  %6 = load ptr, ptr %slh_first, align 8
  store ptr %6, ptr %so, align 8
  br label %for.cond

for.cond:                                         ; preds = %for.inc, %if.end
  %7 = load ptr, ptr %so, align 8
  %tobool4 = icmp ne ptr %7, null
  br i1 %tobool4, label %for.body, label %for.end

for.body:                                         ; preds = %for.cond
  %8 = load i32, ptr %n.addr, align 4
  %tobool5 = icmp ne i32 %8, 0
  br i1 %tobool5, label %if.then6, label %if.else7

if.then6:                                         ; preds = %for.body
  %9 = load i32, ptr %n.addr, align 4
  %dec = add i32 %9, -1
  store i32 %dec, ptr %n.addr, align 4
  br label %if.end23

if.else7:                                         ; preds = %for.body
  %10 = load ptr, ptr %so, align 8
  %obj = getelementptr inbounds %struct.StackObject, ptr %10, i32 0, i32 1
  %11 = load ptr, ptr %obj, align 8
  %call8 = call i32 @qobject_type(ptr noundef %11)
  %cmp = icmp eq i32 %call8, 4
  br i1 %cmp, label %if.then9, label %if.else15

if.then9:                                         ; preds = %if.else7
  %12 = load ptr, ptr %qiv.addr, align 8
  %errname10 = getelementptr inbounds %struct.QObjectInputVisitor, ptr %12, i32 0, i32 4
  %13 = load ptr, ptr %errname10, align 8
  %14 = load ptr, ptr %name.addr, align 8
  %tobool11 = icmp ne ptr %14, null
  br i1 %tobool11, label %cond.true, label %cond.false

cond.true:                                        ; preds = %if.then9
  br label %cond.end

cond.false:                                       ; preds = %if.then9
  br label %cond.end

cond.end:                                         ; preds = %cond.false, %cond.true
  %cond = phi ptr [ %14, %cond.true ], [ @.str.15, %cond.false ]
  %call12 = call ptr @g_string_prepend(ptr noundef %13, ptr noundef %cond)
  %15 = load ptr, ptr %qiv.addr, align 8
  %errname13 = getelementptr inbounds %struct.QObjectInputVisitor, ptr %15, i32 0, i32 4
  %16 = load ptr, ptr %errname13, align 8
  %call14 = call ptr @g_string_prepend_c(ptr noundef %16, i8 noundef signext 46)
  br label %if.end22

if.else15:                                        ; preds = %if.else7
  %arraydecay = getelementptr inbounds [32 x i8], ptr %buf, i64 0, i64 0
  %17 = load ptr, ptr %qiv.addr, align 8
  %keyval = getelementptr inbounds %struct.QObjectInputVisitor, ptr %17, i32 0, i32 2
  %18 = load i8, ptr %keyval, align 8
  %tobool16 = trunc i8 %18 to i1
  %cond17 = select i1 %tobool16, ptr @.str.16, ptr @.str.17
  %19 = load ptr, ptr %so, align 8
  %index = getelementptr inbounds %struct.StackObject, ptr %19, i32 0, i32 5
  %20 = load i32, ptr %index, align 8
  %call18 = call i32 (ptr, i64, ptr, ...) @snprintf(ptr noundef %arraydecay, i64 noundef 32, ptr noundef %cond17, i32 noundef %20) #9
  %21 = load ptr, ptr %qiv.addr, align 8
  %errname19 = getelementptr inbounds %struct.QObjectInputVisitor, ptr %21, i32 0, i32 4
  %22 = load ptr, ptr %errname19, align 8
  %arraydecay20 = getelementptr inbounds [32 x i8], ptr %buf, i64 0, i64 0
  %call21 = call ptr @g_string_prepend(ptr noundef %22, ptr noundef %arraydecay20)
  br label %if.end22

if.end22:                                         ; preds = %if.else15, %cond.end
  br label %if.end23

if.end23:                                         ; preds = %if.end22, %if.then6
  %23 = load ptr, ptr %so, align 8
  %name24 = getelementptr inbounds %struct.StackObject, ptr %23, i32 0, i32 0
  %24 = load ptr, ptr %name24, align 8
  store ptr %24, ptr %name.addr, align 8
  br label %for.inc

for.inc:                                          ; preds = %if.end23
  %25 = load ptr, ptr %so, align 8
  %node = getelementptr inbounds %struct.StackObject, ptr %25, i32 0, i32 6
  %sle_next = getelementptr inbounds %struct.anon.1, ptr %node, i32 0, i32 0
  %26 = load ptr, ptr %sle_next, align 8
  store ptr %26, ptr %so, align 8
  br label %for.cond, !llvm.loop !8

for.end:                                          ; preds = %for.cond
  %27 = load i32, ptr %n.addr, align 4
  %tobool25 = icmp ne i32 %27, 0
  br i1 %tobool25, label %if.else27, label %if.then26

if.then26:                                        ; preds = %for.end
  br label %if.end28

if.else27:                                        ; preds = %for.end
  call void @__assert_fail(ptr noundef @.str.18, ptr noundef @.str.1, i32 noundef 101, ptr noundef @__PRETTY_FUNCTION__.full_name_nth) #7
  unreachable

if.end28:                                         ; preds = %if.then26
  %28 = load ptr, ptr %name.addr, align 8
  %tobool29 = icmp ne ptr %28, null
  br i1 %tobool29, label %if.then30, label %if.else33

if.then30:                                        ; preds = %if.end28
  %29 = load ptr, ptr %qiv.addr, align 8
  %errname31 = getelementptr inbounds %struct.QObjectInputVisitor, ptr %29, i32 0, i32 4
  %30 = load ptr, ptr %errname31, align 8
  %31 = load ptr, ptr %name.addr, align 8
  %call32 = call ptr @g_string_prepend(ptr noundef %30, ptr noundef %31)
  br label %if.end48

if.else33:                                        ; preds = %if.end28
  %32 = load ptr, ptr %qiv.addr, align 8
  %errname34 = getelementptr inbounds %struct.QObjectInputVisitor, ptr %32, i32 0, i32 4
  %33 = load ptr, ptr %errname34, align 8
  %str = getelementptr inbounds %struct._GString, ptr %33, i32 0, i32 0
  %34 = load ptr, ptr %str, align 8
  %arrayidx = getelementptr i8, ptr %34, i64 0
  %35 = load i8, ptr %arrayidx, align 1
  %conv = sext i8 %35 to i32
  %cmp35 = icmp eq i32 %conv, 46
  br i1 %cmp35, label %if.then37, label %if.else40

if.then37:                                        ; preds = %if.else33
  %36 = load ptr, ptr %qiv.addr, align 8
  %errname38 = getelementptr inbounds %struct.QObjectInputVisitor, ptr %36, i32 0, i32 4
  %37 = load ptr, ptr %errname38, align 8
  %call39 = call ptr @g_string_erase(ptr noundef %37, i64 noundef 0, i64 noundef 1)
  br label %if.end47

if.else40:                                        ; preds = %if.else33
  %38 = load ptr, ptr %qiv.addr, align 8
  %errname41 = getelementptr inbounds %struct.QObjectInputVisitor, ptr %38, i32 0, i32 4
  %39 = load ptr, ptr %errname41, align 8
  %str42 = getelementptr inbounds %struct._GString, ptr %39, i32 0, i32 0
  %40 = load ptr, ptr %str42, align 8
  %arrayidx43 = getelementptr i8, ptr %40, i64 0
  %41 = load i8, ptr %arrayidx43, align 1
  %tobool44 = icmp ne i8 %41, 0
  br i1 %tobool44, label %if.end46, label %if.then45

if.then45:                                        ; preds = %if.else40
  store ptr @.str.15, ptr %retval, align 8
  br label %return

if.end46:                                         ; preds = %if.else40
  br label %if.end47

if.end47:                                         ; preds = %if.end46, %if.then37
  br label %if.end48

if.end48:                                         ; preds = %if.end47, %if.then30
  %42 = load ptr, ptr %qiv.addr, align 8
  %errname49 = getelementptr inbounds %struct.QObjectInputVisitor, ptr %42, i32 0, i32 4
  %43 = load ptr, ptr %errname49, align 8
  %str50 = getelementptr inbounds %struct._GString, ptr %43, i32 0, i32 0
  %44 = load ptr, ptr %str50, align 8
  store ptr %44, ptr %retval, align 8
  br label %return

return:                                           ; preds = %if.end48, %if.then45
  %45 = load ptr, ptr %retval, align 8
  ret ptr %45
}