; Function Attrs: nounwind sspstrong uwtable
define internal fastcc ptr @full_name_nth(ptr noundef captures(none) %qiv, ptr noundef %name, i32 noundef range(i32 0, 2) %n) unnamed_addr #0 {
entry:
  %buf = alloca [32 x i8], align 16
  %errname = getelementptr inbounds nuw i8, ptr %qiv, i64 240
  %0 = load ptr, ptr %errname, align 8
  %tobool.not = icmp eq ptr %0, null
  br i1 %tobool.not, label %if.else, label %if.then

if.then:                                          ; preds = %entry
  %call = tail call ptr @g_string_truncate(ptr noundef nonnull %0, i64 noundef 0) #8
  br label %if.end

if.else:                                          ; preds = %entry
  %call2 = tail call ptr @g_string_new(ptr noundef nonnull @.str.14) #8
  store ptr %call2, ptr %errname, align 8
  br label %if.end

if.end:                                           ; preds = %if.else, %if.then
  %stack = getelementptr inbounds nuw i8, ptr %qiv, i64 232
  %1 = icmp eq i32 %n, 0
  %so.023 = load ptr, ptr %stack, align 8
  %tobool4.not24 = icmp eq ptr %so.023, null
  br i1 %tobool4.not24, label %for.end, label %for.body.lr.ph

for.body.lr.ph:                                   ; preds = %if.end
  %keyval = getelementptr inbounds nuw i8, ptr %qiv, i64 224
  br label %for.body

for.body:                                         ; preds = %for.body.lr.ph, %if.end23
  %so.027 = phi ptr [ %so.023, %for.body.lr.ph ], [ %so.0, %if.end23 ]
  %n.addr.026 = phi i1 [ %1, %for.body.lr.ph ], [ true, %if.end23 ]
  %name.addr.025 = phi ptr [ %name, %for.body.lr.ph ], [ %9, %if.end23 ]
  br i1 %n.addr.026, label %if.else7, label %if.end23

if.else7:                                         ; preds = %for.body
  %obj = getelementptr inbounds nuw i8, ptr %so.027, i64 8
  %2 = load ptr, ptr %obj, align 8
  %.val = load i32, ptr %2, align 8
  %3 = add i32 %.val, -1
  %or.cond.i = icmp ult i32 %3, 6
  br i1 %or.cond.i, label %qobject_type.exit, label %if.else.i

if.else.i:                                        ; preds = %if.else7
  call void @__assert_fail(ptr noundef nonnull @.str.12, ptr noundef nonnull @.str.13, i32 noundef 126, ptr noundef nonnull @__PRETTY_FUNCTION__.qobject_type) #7
  unreachable

qobject_type.exit:                                ; preds = %if.else7
  %cmp = icmp eq i32 %.val, 4
  br i1 %cmp, label %if.then9, label %if.else15

if.then9:                                         ; preds = %qobject_type.exit
  %4 = load ptr, ptr %errname, align 8
  %tobool11.not = icmp eq ptr %name.addr.025, null
  %..str.15 = select i1 %tobool11.not, ptr @.str.15, ptr %name.addr.025
  %call12 = call ptr @g_string_prepend(ptr noundef %4, ptr noundef nonnull %..str.15) #8
  %5 = load ptr, ptr %errname, align 8
  %call14 = call ptr @g_string_prepend_c(ptr noundef %5, i8 noundef signext 46) #8
  br label %if.end23

if.else15:                                        ; preds = %qobject_type.exit
  %6 = load i8, ptr %keyval, align 8
  %tobool16 = trunc i8 %6 to i1
  %cond17 = select i1 %tobool16, ptr @.str.16, ptr @.str.17
  %index = getelementptr inbounds nuw i8, ptr %so.027, i64 40
  %7 = load i32, ptr %index, align 8
  %call18 = call i32 (ptr, i64, ptr, ...) @snprintf(ptr noundef nonnull dereferenceable(1) %buf, i64 noundef 32, ptr noundef nonnull %cond17, i32 noundef %7) #8
  %8 = load ptr, ptr %errname, align 8
  %call21 = call ptr @g_string_prepend(ptr noundef %8, ptr noundef nonnull %buf) #8
  br label %if.end23

if.end23:                                         ; preds = %for.body, %if.then9, %if.else15
  %9 = load ptr, ptr %so.027, align 8
  %node = getelementptr inbounds nuw i8, ptr %so.027, i64 48
  %so.0 = load ptr, ptr %node, align 8
  %tobool4.not = icmp eq ptr %so.0, null
  br i1 %tobool4.not, label %if.end28, label %for.body, !llvm.loop !8

for.end:                                          ; preds = %if.end
  br i1 %1, label %if.end28, label %if.else27

if.else27:                                        ; preds = %for.end
  tail call void @__assert_fail(ptr noundef nonnull @.str.18, ptr noundef nonnull @.str.1, i32 noundef 101, ptr noundef nonnull @__PRETTY_FUNCTION__.full_name_nth) #7
  unreachable

if.end28:                                         ; preds = %if.end23, %for.end
  %name.addr.0.lcssa31 = phi ptr [ %name, %for.end ], [ %9, %if.end23 ]
  %tobool29.not = icmp eq ptr %name.addr.0.lcssa31, null
  %10 = load ptr, ptr %errname, align 8
  br i1 %tobool29.not, label %if.else33, label %if.then30

if.then30:                                        ; preds = %if.end28
  %call32 = call ptr @g_string_prepend(ptr noundef %10, ptr noundef nonnull %name.addr.0.lcssa31) #8
  br label %if.end48

if.else33:                                        ; preds = %if.end28
  %11 = load ptr, ptr %10, align 8
  %12 = load i8, ptr %11, align 1
  switch i8 %12, label %if.end48 [
    i8 46, label %if.then37
    i8 0, label %return
  ]

if.then37:                                        ; preds = %if.else33
  %call39 = call ptr @g_string_erase(ptr noundef nonnull %10, i64 noundef 0, i64 noundef 1) #8
  br label %if.end48

if.end48:                                         ; preds = %if.else33, %if.then37, %if.then30
  %13 = load ptr, ptr %errname, align 8
  %14 = load ptr, ptr %13, align 8
  br label %return

return:                                           ; preds = %if.else33, %if.end48
  %retval.0 = phi ptr [ %14, %if.end48 ], [ @.str.15, %if.else33 ]
  ret ptr %retval.0
}